target datalayout = "e-m:e-p270:32:32-p271:32:32-p272:64:64-i64:64-i128:128-f80:128-n8:16:32:64-S128"
target triple = "x86_64-pc-linux-gnu"

@.str = private unnamed_addr constant [25 x i8] c"../openssl/ssl/ssl_lib.c\00", align 1
@__func__.ossl_adjust_domain_flags = private unnamed_addr constant [25 x i8] c"ossl_adjust_domain_flags\00", align 1
@.str.16 = private unnamed_addr constant [34 x i8] c"unsupported domain flag requested\00", align 1
@.str.17 = private unnamed_addr constant [42 x i8] c"mutually exclusive domain flags specified\00", align 1

; Function Attrs: nounwind uwtable
define i32 @ossl_adjust_domain_flags(i64 noundef %0, ptr noundef %1) #0 {
  %3 = alloca i32, align 4
  %4 = alloca i64, align 8
  %5 = alloca ptr, align 8
  store i64 %0, ptr %4, align 8, !tbaa !10
  store ptr %1, ptr %5, align 8, !tbaa !12
  %6 = load i64, ptr %4, align 8, !tbaa !10
  %7 = and i64 %6, 4294967264
  %8 = icmp ne i64 %7, 0
  br i1 %8, label %9, label %10

9:                                                ; preds = %2
  call void @ERR_new()
  call void @ERR_set_debug(ptr noundef @.str, i32 noundef 8041, ptr noundef @__func__.ossl_adjust_domain_flags)
  call void (i32, i32, ptr, ...) @ERR_set_error(i32 noundef 20, i32 noundef 524556, ptr noundef @.str.16)
  store i32 0, ptr %3, align 4
  br label %36

10:                                               ; preds = %2
  %11 = load i64, ptr %4, align 8, !tbaa !10
  %12 = and i64 %11, 4
  %13 = icmp ne i64 %12, 0
  br i1 %13, label %14, label %17

14:                                               ; preds = %10
  %15 = load i64, ptr %4, align 8, !tbaa !10
  %16 = or i64 %15, 2
  store i64 %16, ptr %4, align 8, !tbaa !10
  br label %17

17:                                               ; preds = %14, %10
  %18 = load i64, ptr %4, align 8, !tbaa !10
  %19 = and i64 %18, 3
  %20 = icmp eq i64 %19, 0
  br i1 %20, label %21, label %24

21:                                               ; preds = %17
  %22 = load i64, ptr %4, align 8, !tbaa !10
  %23 = or i64 %22, 2
  store i64 %23, ptr %4, align 8, !tbaa !10
  br label %24

24:                                               ; preds = %21, %17
  %25 = load i64, ptr %4, align 8, !tbaa !10
  %26 = and i64 %25, 1
  %27 = icmp ne i64 %26, 0
  br i1 %27, label %28, label %33

28:                                               ; preds = %24
  %29 = load i64, ptr %4, align 8, !tbaa !10
  %30 = and i64 %29, 2
  %31 = icmp ne i64 %30, 0
  br i1 %31, label %32, label %33

32:                                               ; preds = %28
  call void @ERR_new()
  call void @ERR_set_debug(ptr noundef @.str, i32 noundef 8055, ptr noundef @__func__.ossl_adjust_domain_flags)
  call void (i32, i32, ptr, ...) @ERR_set_error(i32 noundef 20, i32 noundef 524550, ptr noundef @.str.17)
  store i32 0, ptr %3, align 4
  br label %36

33:                                               ; preds = %28, %24
  %34 = load i64, ptr %4, align 8, !tbaa !10
  %35 = load ptr, ptr %5, align 8, !tbaa !12
  store i64 %34, ptr %35, align 8, !tbaa !10
  store i32 1, ptr %3, align 4
  br label %36

36:                                               ; preds = %33, %32, %9
  %37 = load i32, ptr %3, align 4
  ret i32 %37
}