; Function Attrs: nounwind uwtable
define range(i32 0, 2) i32 @ossl_adjust_domain_flags(i64 noundef %0, ptr noundef writeonly captures(none) %1) local_unnamed_addr #0 {
  %3 = and i64 %0, 4294967264
  %.not = icmp eq i64 %3, 0
  br i1 %.not, label %5, label %4

4:                                                ; preds = %2
  tail call void @ERR_new() #20
  tail call void @ERR_set_debug(ptr noundef nonnull @.str, i32 noundef 8041, ptr noundef nonnull @__func__.ossl_adjust_domain_flags) #20
  tail call void (i32, i32, ptr, ...) @ERR_set_error(i32 noundef 20, i32 noundef 524556, ptr noundef nonnull @.str.16) #20
  br label %14

5:                                                ; preds = %2
  %6 = or i64 %0, 2
  %7 = lshr i64 %0, 1
  %8 = and i64 %7, 2
  %spec.select = or i64 %8, %0
  %9 = and i64 %spec.select, 3
  %10 = icmp eq i64 %9, 0
  %.1 = select i1 %10, i64 %6, i64 %spec.select
  %11 = and i64 %.1, 3
  %or.cond.not = icmp eq i64 %11, 3
  br i1 %or.cond.not, label %12, label %13

12:                                               ; preds = %5
  tail call void @ERR_new() #20
  tail call void @ERR_set_debug(ptr noundef nonnull @.str, i32 noundef 8055, ptr noundef nonnull @__func__.ossl_adjust_domain_flags) #20
  tail call void (i32, i32, ptr, ...) @ERR_set_error(i32 noundef 20, i32 noundef 524550, ptr noundef nonnull @.str.17) #20
  br label %14

13:                                               ; preds = %5
  store i64 %.1, ptr %1, align 8, !tbaa !285
  br label %14

14:                                               ; preds = %13, %12, %4
  %.0 = phi i32 [ 0, %4 ], [ 0, %12 ], [ 1, %13 ]
  ret i32 %.0
}